target datalayout = "e-m:e-p270:32:32-p271:32:32-p272:64:64-i64:64-i128:128-f80:128-n8:16:32:64-S128"
target triple = "x86_64-pc-linux-gnu"

%struct.ssl_st = type { i32, i16, i16, ptr, ptr, ptr, ptr, ptr, i32, i32, ptr, ptr, i32, i32, ptr, ptr, ptr, ptr, ptr, ptr, ptr, ptr, i32, i32, [32 x i8], ptr, ptr, ptr, ptr, ptr, ptr, ptr, i64, %struct.crypto_ex_data_st, ptr, i32, i32, i32, i32, i16, ptr, i32, i64, ptr, ptr, ptr, ptr, ptr, ptr, i32, i32, ptr, ptr, i8, i8, i32 }
%struct.crypto_ex_data_st = type { ptr }
%struct.ssl3_state_st = type { [8 x i8], [8 x i8], [32 x i8], [32 x i8], i8, i8, %struct.ssl3_buffer_st, %struct.ssl3_buffer_st, %struct.ssl3_record_st, i8, i32, i32, i32, i32, ptr, ptr, %struct.env_md_ctx_st, %struct.env_md_ctx_st, i8, i32, [2 x i8], i32, i8, i8, ptr, ptr, ptr, %struct.anon, [64 x i8], i8, [64 x i8], i8, i32, i32, ptr, i64, ptr, i64, i8, [64 x i8] }
%struct.ssl3_buffer_st = type { ptr, i16, i16, i16 }
%struct.ssl3_record_st = type { i8, i16, ptr }
%struct.env_md_ctx_st = type { ptr, ptr, ptr, ptr }
%struct.anon = type { [64 x i8], i32, [64 x i8], i32, i64, i32, ptr, i32, i32, %union.anon, %union.anon.0, i8, i32, ptr, ptr, i64, ptr, i8, i8, i8, i8, i32, i8, ptr, i64, i8, ptr, i8, i8, i8, %struct.ssl_ecdh_ctx_st, ptr, i16 }
%union.anon = type { i32 }
%union.anon.0 = type { i16 }
%struct.ssl_ecdh_ctx_st = type { ptr, ptr }
%struct.ssl_protocol_method_st = type { i8, ptr, ptr, ptr, ptr, ptr, ptr, ptr, ptr, ptr, ptr, ptr, i32, ptr, ptr }
%struct.cbs_st = type { ptr, i64 }

@.str = private unnamed_addr constant [117 x i8] c"generated/home/dtcxzyw/WorkSpace/Projects/compilers/llvm-opt-benchmark/bench/libquic/libquic/boringssl/ssl/s3_srvr.c\00", align 1

; Function Attrs: nounwind uwtable
define hidden i32 @ssl3_get_next_proto(ptr noundef %0) #0 {
  %2 = alloca i32, align 4
  %3 = alloca ptr, align 8
  %4 = alloca i32, align 4
  %5 = alloca i64, align 8
  %6 = alloca %struct.cbs_st, align 8
  %7 = alloca %struct.cbs_st, align 8
  %8 = alloca %struct.cbs_st, align 8
  %9 = alloca i32, align 4
  store ptr %0, ptr %3, align 8, !tbaa !6
  call void @llvm.lifetime.start.p0(i64 4, ptr %4) #9
  call void @llvm.lifetime.start.p0(i64 8, ptr %5) #9
  call void @llvm.lifetime.start.p0(i64 16, ptr %6) #9
  call void @llvm.lifetime.start.p0(i64 16, ptr %7) #9
  call void @llvm.lifetime.start.p0(i64 16, ptr %8) #9
  %10 = load ptr, ptr %3, align 8, !tbaa !6
  %11 = getelementptr inbounds nuw %struct.ssl_st, ptr %10, i32 0, i32 14
  %12 = load ptr, ptr %11, align 8, !tbaa !51
  %13 = getelementptr inbounds nuw %struct.ssl3_state_st, ptr %12, i32 0, i32 33
  %14 = load i32, ptr %13, align 8, !tbaa !79
  %15 = icmp ne i32 %14, 0
  br i1 %15, label %17, label %16

16:                                               ; preds = %1
  call void @ERR_put_error(i32 noundef 16, i32 noundef 0, i32 noundef 153, ptr noundef @.str, i32 noundef 2121)
  store i32 -1, ptr %2, align 4
  store i32 1, ptr %9, align 4
  br label %56

17:                                               ; preds = %1
  %18 = load ptr, ptr %3, align 8, !tbaa !6
  %19 = getelementptr inbounds nuw %struct.ssl_st, ptr %18, i32 0, i32 3
  %20 = load ptr, ptr %19, align 8, !tbaa !76
  %21 = getelementptr inbounds nuw %struct.ssl_protocol_method_st, ptr %20, i32 0, i32 5
  %22 = load ptr, ptr %21, align 8, !tbaa !104
  %23 = load ptr, ptr %3, align 8, !tbaa !6
  %24 = call i64 %22(ptr noundef %23, i32 noundef 8720, i32 noundef 8721, i32 noundef 67, i64 noundef 514, i32 noundef 1, ptr noundef %4)
  store i64 %24, ptr %5, align 8, !tbaa !91
  %25 = load i32, ptr %4, align 4, !tbaa !14
  %26 = icmp ne i32 %25, 0
  br i1 %26, label %30, label %27

27:                                               ; preds = %17
  %28 = load i64, ptr %5, align 8, !tbaa !91
  %29 = trunc i64 %28 to i32
  store i32 %29, ptr %2, align 4
  store i32 1, ptr %9, align 4
  br label %56

30:                                               ; preds = %17
  %31 = load ptr, ptr %3, align 8, !tbaa !6
  %32 = getelementptr inbounds nuw %struct.ssl_st, ptr %31, i32 0, i32 11
  %33 = load ptr, ptr %32, align 8, !tbaa !107
  %34 = load i64, ptr %5, align 8, !tbaa !91
  call void @CBS_init(ptr noundef %6, ptr noundef %33, i64 noundef %34)
  %35 = call i32 @CBS_get_u8_length_prefixed(ptr noundef %6, ptr noundef %7)
  %36 = icmp ne i32 %35, 0
  br i1 %36, label %37, label %54

37:                                               ; preds = %30
  %38 = call i32 @CBS_get_u8_length_prefixed(ptr noundef %6, ptr noundef %8)
  %39 = icmp ne i32 %38, 0
  br i1 %39, label %40, label %54

40:                                               ; preds = %37
  %41 = call i64 @CBS_len(ptr noundef %6)
  %42 = icmp ne i64 %41, 0
  br i1 %42, label %54, label %43

43:                                               ; preds = %40
  %44 = load ptr, ptr %3, align 8, !tbaa !6
  %45 = getelementptr inbounds nuw %struct.ssl_st, ptr %44, i32 0, i32 14
  %46 = load ptr, ptr %45, align 8, !tbaa !51
  %47 = getelementptr inbounds nuw %struct.ssl3_state_st, ptr %46, i32 0, i32 34
  %48 = load ptr, ptr %3, align 8, !tbaa !6
  %49 = getelementptr inbounds nuw %struct.ssl_st, ptr %48, i32 0, i32 14
  %50 = load ptr, ptr %49, align 8, !tbaa !51
  %51 = getelementptr inbounds nuw %struct.ssl3_state_st, ptr %50, i32 0, i32 35
  %52 = call i32 @CBS_stow(ptr noundef %7, ptr noundef %47, ptr noundef %51)
  %53 = icmp ne i32 %52, 0
  br i1 %53, label %55, label %54

54:                                               ; preds = %43, %40, %37, %30
  store i32 0, ptr %2, align 4
  store i32 1, ptr %9, align 4
  br label %56

55:                                               ; preds = %43
  store i32 1, ptr %2, align 4
  store i32 1, ptr %9, align 4
  br label %56

56:                                               ; preds = %55, %54, %27, %16
  call void @llvm.lifetime.end.p0(i64 16, ptr %8) #9
  call void @llvm.lifetime.end.p0(i64 16, ptr %7) #9
  call void @llvm.lifetime.end.p0(i64 16, ptr %6) #9
  call void @llvm.lifetime.end.p0(i64 8, ptr %5) #9
  call void @llvm.lifetime.end.p0(i64 4, ptr %4) #9
  %57 = load i32, ptr %2, align 4
  ret i32 %57
}