; Function Attrs: nounwind uwtable
define hidden i32 @ssl3_get_next_proto(ptr noundef %0) local_unnamed_addr #0 {
  %2 = alloca i32, align 4
  %3 = alloca %struct.cbs_st, align 8
  %4 = alloca %struct.cbs_st, align 8
  %5 = alloca %struct.cbs_st, align 8
  call void @llvm.lifetime.start.p0(i64 4, ptr nonnull %2) #10
  call void @llvm.lifetime.start.p0(i64 16, ptr nonnull %3) #10
  call void @llvm.lifetime.start.p0(i64 16, ptr nonnull %4) #10
  call void @llvm.lifetime.start.p0(i64 16, ptr nonnull %5) #10
  %6 = getelementptr inbounds nuw i8, ptr %0, i64 80
  %7 = load ptr, ptr %6, align 8, !tbaa !46
  %8 = getelementptr inbounds nuw i8, ptr %7, i64 728
  %9 = load i32, ptr %8, align 8, !tbaa !76
  %.not = icmp eq i32 %9, 0
  br i1 %.not, label %10, label %11

10:                                               ; preds = %1
  tail call void @ERR_put_error(i32 noundef 16, i32 noundef 0, i32 noundef 153, ptr noundef nonnull @.str, i32 noundef 2121) #10
  br label %33

11:                                               ; preds = %1
  %12 = getelementptr inbounds nuw i8, ptr %0, i64 8
  %13 = load ptr, ptr %12, align 8, !tbaa !64
  %14 = getelementptr inbounds nuw i8, ptr %13, i64 40
  %15 = load ptr, ptr %14, align 8, !tbaa !100
  %16 = call i64 %15(ptr noundef nonnull %0, i32 noundef 8720, i32 noundef 8721, i32 noundef 67, i64 noundef 514, i32 noundef 1, ptr noundef nonnull %2) #10
  %17 = load i32, ptr %2, align 4, !tbaa !93
  %.not8 = icmp eq i32 %17, 0
  br i1 %.not8, label %18, label %20

18:                                               ; preds = %11
  %19 = trunc i64 %16 to i32
  br label %33

20:                                               ; preds = %11
  %21 = getelementptr inbounds nuw i8, ptr %0, i64 64
  %22 = load ptr, ptr %21, align 8, !tbaa !104
  call void @CBS_init(ptr noundef nonnull %3, ptr noundef %22, i64 noundef %16) #10
  %23 = call i32 @CBS_get_u8_length_prefixed(ptr noundef nonnull %3, ptr noundef nonnull %4) #10
  %.not9 = icmp eq i32 %23, 0
  br i1 %.not9, label %33, label %24

24:                                               ; preds = %20
  %25 = call i32 @CBS_get_u8_length_prefixed(ptr noundef nonnull %3, ptr noundef nonnull %5) #10
  %.not10 = icmp eq i32 %25, 0
  br i1 %.not10, label %33, label %26

26:                                               ; preds = %24
  %27 = call i64 @CBS_len(ptr noundef nonnull %3) #10
  %.not11 = icmp eq i64 %27, 0
  br i1 %.not11, label %28, label %33

28:                                               ; preds = %26
  %29 = load ptr, ptr %6, align 8, !tbaa !46
  %30 = getelementptr inbounds nuw i8, ptr %29, i64 736
  %31 = getelementptr inbounds nuw i8, ptr %29, i64 744
  %32 = call i32 @CBS_stow(ptr noundef nonnull %4, ptr noundef nonnull %30, ptr noundef nonnull %31) #10
  %.not12 = icmp ne i32 %32, 0
  %spec.select = zext i1 %.not12 to i32
  br label %33

33:                                               ; preds = %28, %20, %24, %26, %18, %10
  %.0 = phi i32 [ %19, %18 ], [ -1, %10 ], [ 0, %26 ], [ 0, %24 ], [ 0, %20 ], [ %spec.select, %28 ]
  call void @llvm.lifetime.end.p0(i64 16, ptr nonnull %5) #10
  call void @llvm.lifetime.end.p0(i64 16, ptr nonnull %4) #10
  call void @llvm.lifetime.end.p0(i64 16, ptr nonnull %3) #10
  call void @llvm.lifetime.end.p0(i64 4, ptr nonnull %2) #10
  ret i32 %.0
}